; Function Attrs: mustprogress uwtable
define noundef zeroext i1 @_ZNK8QuantLib26FuturesConvAdjustmentQuote7isValidEv(ptr noundef nonnull align 8 dereferenceable(144) %this) unnamed_addr #1 align 2 {
entry:
  %futuresQuote_ = getelementptr inbounds nuw i8, ptr %this, i64 96
  %0 = load ptr, ptr %futuresQuote_, align 8, !tbaa !45
  %cmp.not.i.i = icmp eq ptr %0, null
  br i1 %cmp.not.i.i, label %cond.false.i.i, label %_ZNK8QuantLib6HandleINS_5QuoteEE5emptyEv.exit, !prof !41

cond.false.i.i:                                   ; preds = %entry
  tail call void @_ZN5boost16assertion_failedEPKcS1_S1_l(ptr noundef nonnull @.str.9, ptr noundef nonnull @__PRETTY_FUNCTION__._ZNK5boost10shared_ptrIN8QuantLib6HandleINS1_5QuoteEE4LinkEEptEv, ptr noundef nonnull @.str.10, i64 noundef 784)
  %.pre.i.i = load ptr, ptr %futuresQuote_, align 8, !tbaa !45
  br label %_ZNK8QuantLib6HandleINS_5QuoteEE5emptyEv.exit

_ZNK8QuantLib6HandleINS_5QuoteEE5emptyEv.exit:    ; preds = %entry, %cond.false.i.i
  %1 = phi ptr [ %0, %entry ], [ %.pre.i.i, %cond.false.i.i ]
  %h_.i.i = getelementptr inbounds nuw i8, ptr %1, i64 112
  %2 = load ptr, ptr %h_.i.i, align 8, !tbaa !90
  %cmp.i.i.i = icmp eq ptr %2, null
  br i1 %cmp.i.i.i, label %land.end, label %land.lhs.true

land.lhs.true:                                    ; preds = %_ZNK8QuantLib6HandleINS_5QuoteEE5emptyEv.exit
  %volatility_ = getelementptr inbounds nuw i8, ptr %this, i64 112
  %3 = load ptr, ptr %volatility_, align 8, !tbaa !45
  %cmp.not.i.i1 = icmp eq ptr %3, null
  br i1 %cmp.not.i.i1, label %cond.false.i.i4, label %_ZNK8QuantLib6HandleINS_5QuoteEE5emptyEv.exit6, !prof !41

cond.false.i.i4:                                  ; preds = %land.lhs.true
  tail call void @_ZN5boost16assertion_failedEPKcS1_S1_l(ptr noundef nonnull @.str.9, ptr noundef nonnull @__PRETTY_FUNCTION__._ZNK5boost10shared_ptrIN8QuantLib6HandleINS1_5QuoteEE4LinkEEptEv, ptr noundef nonnull @.str.10, i64 noundef 784)
  %.pre.i.i5 = load ptr, ptr %volatility_, align 8, !tbaa !45
  br label %_ZNK8QuantLib6HandleINS_5QuoteEE5emptyEv.exit6

_ZNK8QuantLib6HandleINS_5QuoteEE5emptyEv.exit6:   ; preds = %land.lhs.true, %cond.false.i.i4
  %4 = phi ptr [ %3, %land.lhs.true ], [ %.pre.i.i5, %cond.false.i.i4 ]
  %h_.i.i2 = getelementptr inbounds nuw i8, ptr %4, i64 112
  %5 = load ptr, ptr %h_.i.i2, align 8, !tbaa !90
  %cmp.i.i.i3 = icmp eq ptr %5, null
  br i1 %cmp.i.i.i3, label %land.end, label %land.lhs.true3

land.lhs.true3:                                   ; preds = %_ZNK8QuantLib6HandleINS_5QuoteEE5emptyEv.exit6
  %meanReversion_ = getelementptr inbounds nuw i8, ptr %this, i64 128
  %6 = load ptr, ptr %meanReversion_, align 8, !tbaa !45
  %cmp.not.i.i7 = icmp eq ptr %6, null
  br i1 %cmp.not.i.i7, label %cond.false.i.i10, label %_ZNK8QuantLib6HandleINS_5QuoteEE5emptyEv.exit12, !prof !41

cond.false.i.i10:                                 ; preds = %land.lhs.true3
  tail call void @_ZN5boost16assertion_failedEPKcS1_S1_l(ptr noundef nonnull @.str.9, ptr noundef nonnull @__PRETTY_FUNCTION__._ZNK5boost10shared_ptrIN8QuantLib6HandleINS1_5QuoteEE4LinkEEptEv, ptr noundef nonnull @.str.10, i64 noundef 784)
  %.pre.i.i11 = load ptr, ptr %meanReversion_, align 8, !tbaa !45
  br label %_ZNK8QuantLib6HandleINS_5QuoteEE5emptyEv.exit12

_ZNK8QuantLib6HandleINS_5QuoteEE5emptyEv.exit12:  ; preds = %land.lhs.true3, %cond.false.i.i10
  %7 = phi ptr [ %6, %land.lhs.true3 ], [ %.pre.i.i11, %cond.false.i.i10 ]
  %h_.i.i8 = getelementptr inbounds nuw i8, ptr %7, i64 112
  %8 = load ptr, ptr %h_.i.i8, align 8, !tbaa !90
  %cmp.i.i.i9 = icmp eq ptr %8, null
  br i1 %cmp.i.i.i9, label %land.end, label %land.lhs.true5

land.lhs.true5:                                   ; preds = %_ZNK8QuantLib6HandleINS_5QuoteEE5emptyEv.exit12
  %call7 = tail call noundef nonnull align 8 dereferenceable(16) ptr @_ZNK8QuantLib6HandleINS_5QuoteEEptEv(ptr noundef nonnull align 8 dereferenceable(16) %futuresQuote_)
  %9 = load ptr, ptr %call7, align 8, !tbaa !90
  %cmp.not.i = icmp eq ptr %9, null
  br i1 %cmp.not.i, label %cond.false.i, label %_ZNK5boost10shared_ptrIN8QuantLib5QuoteEEptEv.exit, !prof !41

cond.false.i:                                     ; preds = %land.lhs.true5
  tail call void @_ZN5boost16assertion_failedEPKcS1_S1_l(ptr noundef nonnull @.str.9, ptr noundef nonnull @__PRETTY_FUNCTION__._ZNK5boost10shared_ptrIN8QuantLib5QuoteEEptEv, ptr noundef nonnull @.str.10, i64 noundef 784)
  %.pre.i = load ptr, ptr %call7, align 8, !tbaa !90
  br label %_ZNK5boost10shared_ptrIN8QuantLib5QuoteEEptEv.exit

_ZNK5boost10shared_ptrIN8QuantLib5QuoteEEptEv.exit: ; preds = %land.lhs.true5, %cond.false.i
  %10 = phi ptr [ %9, %land.lhs.true5 ], [ %.pre.i, %cond.false.i ]
  %vtable = load ptr, ptr %10, align 8, !tbaa !14
  %vfn = getelementptr inbounds i8, ptr %vtable, i64 24
  %11 = load ptr, ptr %vfn, align 8
  %call9 = tail call noundef zeroext i1 %11(ptr noundef nonnull align 8 dereferenceable(8) %10)
  br i1 %call9, label %land.lhs.true10, label %land.end

land.lhs.true10:                                  ; preds = %_ZNK5boost10shared_ptrIN8QuantLib5QuoteEEptEv.exit
  %call12 = tail call noundef nonnull align 8 dereferenceable(16) ptr @_ZNK8QuantLib6HandleINS_5QuoteEEptEv(ptr noundef nonnull align 8 dereferenceable(16) %volatility_)
  %12 = load ptr, ptr %call12, align 8, !tbaa !90
  %cmp.not.i13 = icmp eq ptr %12, null
  br i1 %cmp.not.i13, label %cond.false.i14, label %_ZNK5boost10shared_ptrIN8QuantLib5QuoteEEptEv.exit16, !prof !41

cond.false.i14:                                   ; preds = %land.lhs.true10
  tail call void @_ZN5boost16assertion_failedEPKcS1_S1_l(ptr noundef nonnull @.str.9, ptr noundef nonnull @__PRETTY_FUNCTION__._ZNK5boost10shared_ptrIN8QuantLib5QuoteEEptEv, ptr noundef nonnull @.str.10, i64 noundef 784)
  %.pre.i15 = load ptr, ptr %call12, align 8, !tbaa !90
  br label %_ZNK5boost10shared_ptrIN8QuantLib5QuoteEEptEv.exit16

_ZNK5boost10shared_ptrIN8QuantLib5QuoteEEptEv.exit16: ; preds = %land.lhs.true10, %cond.false.i14
  %13 = phi ptr [ %12, %land.lhs.true10 ], [ %.pre.i15, %cond.false.i14 ]
  %vtable14 = load ptr, ptr %13, align 8, !tbaa !14
  %vfn15 = getelementptr inbounds i8, ptr %vtable14, i64 24
  %14 = load ptr, ptr %vfn15, align 8
  %call16 = tail call noundef zeroext i1 %14(ptr noundef nonnull align 8 dereferenceable(8) %13)
  br i1 %call16, label %land.rhs, label %land.end

land.rhs:                                         ; preds = %_ZNK5boost10shared_ptrIN8QuantLib5QuoteEEptEv.exit16
  %call18 = tail call noundef nonnull align 8 dereferenceable(16) ptr @_ZNK8QuantLib6HandleINS_5QuoteEEptEv(ptr noundef nonnull align 8 dereferenceable(16) %meanReversion_)
  %15 = load ptr, ptr %call18, align 8, !tbaa !90
  %cmp.not.i17 = icmp eq ptr %15, null
  br i1 %cmp.not.i17, label %cond.false.i18, label %_ZNK5boost10shared_ptrIN8QuantLib5QuoteEEptEv.exit20, !prof !41

cond.false.i18:                                   ; preds = %land.rhs
  tail call void @_ZN5boost16assertion_failedEPKcS1_S1_l(ptr noundef nonnull @.str.9, ptr noundef nonnull @__PRETTY_FUNCTION__._ZNK5boost10shared_ptrIN8QuantLib5QuoteEEptEv, ptr noundef nonnull @.str.10, i64 noundef 784)
  %.pre.i19 = load ptr, ptr %call18, align 8, !tbaa !90
  br label %_ZNK5boost10shared_ptrIN8QuantLib5QuoteEEptEv.exit20

_ZNK5boost10shared_ptrIN8QuantLib5QuoteEEptEv.exit20: ; preds = %land.rhs, %cond.false.i18
  %16 = phi ptr [ %15, %land.rhs ], [ %.pre.i19, %cond.false.i18 ]
  %vtable20 = load ptr, ptr %16, align 8, !tbaa !14
  %vfn21 = getelementptr inbounds i8, ptr %vtable20, i64 24
  %17 = load ptr, ptr %vfn21, align 8
  %call22 = tail call noundef zeroext i1 %17(ptr noundef nonnull align 8 dereferenceable(8) %16)
  br label %land.end

land.end:                                         ; preds = %_ZNK5boost10shared_ptrIN8QuantLib5QuoteEEptEv.exit20, %_ZNK5boost10shared_ptrIN8QuantLib5QuoteEEptEv.exit16, %_ZNK5boost10shared_ptrIN8QuantLib5QuoteEEptEv.exit, %_ZNK8QuantLib6HandleINS_5QuoteEE5emptyEv.exit12, %_ZNK8QuantLib6HandleINS_5QuoteEE5emptyEv.exit6, %_ZNK8QuantLib6HandleINS_5QuoteEE5emptyEv.exit
  %18 = phi i1 [ false, %_ZNK5boost10shared_ptrIN8QuantLib5QuoteEEptEv.exit16 ], [ false, %_ZNK5boost10shared_ptrIN8QuantLib5QuoteEEptEv.exit ], [ false, %_ZNK8QuantLib6HandleINS_5QuoteEE5emptyEv.exit12 ], [ false, %_ZNK8QuantLib6HandleINS_5QuoteEE5emptyEv.exit6 ], [ false, %_ZNK8QuantLib6HandleINS_5QuoteEE5emptyEv.exit ], [ %call22, %_ZNK5boost10shared_ptrIN8QuantLib5QuoteEEptEv.exit20 ]
  ret i1 %18
}